target datalayout = "e-m:e-p270:32:32-p271:32:32-p272:64:64-i64:64-i128:128-f80:128-n8:16:32:64-S128"
target triple = "x86_64-unknown-linux-gnu"

%"struct.hermes::vm::instrumentation::PerfCounter" = type { i32, ptr, i32, i64 }
%struct.perf_event_attr = type { i32, i32, i64, %union.anon, i64, i64, i64, %union.anon.0, i32, %union.anon.1, %union.anon.2, i64, i64, i32, i32, i64, i32, i16, i16, i32, i32, i64 }
%union.anon = type { i64 }
%union.anon.0 = type { i32 }
%union.anon.1 = type { i64 }
%union.anon.2 = type { i64 }

; Function Attrs: mustprogress nounwind uwtable
define hidden noundef zeroext i1 @_ZN6hermes2vm15instrumentation11PerfCounter10ensureInitEv(ptr noundef nonnull align 8 dereferenceable(32) %this) #0 align 2 {
entry:
  %this.addr = alloca ptr, align 8
  %pe = alloca %struct.perf_event_attr, align 8
  store ptr %this, ptr %this.addr, align 8
  %this1 = load ptr, ptr %this.addr, align 8
  call void @llvm.memset.p0.i64(ptr align 8 %pe, i8 0, i64 128, i1 false)
  %type_ = getelementptr inbounds %"struct.hermes::vm::instrumentation::PerfCounter", ptr %this1, i32 0, i32 2
  %0 = load i32, ptr %type_, align 8
  %type = getelementptr inbounds %struct.perf_event_attr, ptr %pe, i32 0, i32 0
  store i32 %0, ptr %type, align 8
  %size = getelementptr inbounds %struct.perf_event_attr, ptr %pe, i32 0, i32 1
  store i32 128, ptr %size, align 4
  %config_ = getelementptr inbounds %"struct.hermes::vm::instrumentation::PerfCounter", ptr %this1, i32 0, i32 3
  %1 = load i64, ptr %config_, align 8
  %config = getelementptr inbounds %struct.perf_event_attr, ptr %pe, i32 0, i32 2
  store i64 %1, ptr %config, align 8
  %disabled = getelementptr inbounds %struct.perf_event_attr, ptr %pe, i32 0, i32 6
  %bf.load = load i64, ptr %disabled, align 8
  %bf.clear = and i64 %bf.load, -2
  %bf.set = or i64 %bf.clear, 1
  store i64 %bf.set, ptr %disabled, align 8
  %exclude_kernel = getelementptr inbounds %struct.perf_event_attr, ptr %pe, i32 0, i32 6
  %bf.load2 = load i64, ptr %exclude_kernel, align 8
  %bf.clear3 = and i64 %bf.load2, -33
  %bf.set4 = or i64 %bf.clear3, 32
  store i64 %bf.set4, ptr %exclude_kernel, align 8
  %exclude_hv = getelementptr inbounds %struct.perf_event_attr, ptr %pe, i32 0, i32 6
  %bf.load5 = load i64, ptr %exclude_hv, align 8
  %bf.clear6 = and i64 %bf.load5, -65
  %bf.set7 = or i64 %bf.clear6, 64
  store i64 %bf.set7, ptr %exclude_hv, align 8
  %call = call i64 (i64, ...) @syscall(i64 noundef 298, ptr noundef %pe, i32 noundef 0, i32 noundef -1, i32 noundef -1, i32 noundef 0) #6
  %conv = trunc i64 %call to i32
  %fd_ = getelementptr inbounds %"struct.hermes::vm::instrumentation::PerfCounter", ptr %this1, i32 0, i32 0
  store i32 %conv, ptr %fd_, align 8
  %fd_8 = getelementptr inbounds %"struct.hermes::vm::instrumentation::PerfCounter", ptr %this1, i32 0, i32 0
  %2 = load i32, ptr %fd_8, align 8
  %cmp = icmp ne i32 %2, -1
  ret i1 %cmp
}

; Function Attrs: mustprogress nounwind uwtable
define hidden noundef zeroext i1 @_ZN6hermes2vm15instrumentation11PerfCounter5beginEv(ptr noundef nonnull align 8 dereferenceable(32) %this) #0 align 2 {
entry:
  %retval = alloca i1, align 1
  %this.addr = alloca ptr, align 8
  store ptr %this, ptr %this.addr, align 8
  %this1 = load ptr, ptr %this.addr, align 8
  %fd_ = getelementptr inbounds %"struct.hermes::vm::instrumentation::PerfCounter", ptr %this1, i32 0, i32 0
  %0 = load i32, ptr %fd_, align 8
  %cmp = icmp eq i32 %0, -1
  br i1 %cmp, label %land.lhs.true, label %if.end

land.lhs.true:                                    ; preds = %entry
  %call = call noundef zeroext i1 @_ZN6hermes2vm15instrumentation11PerfCounter10ensureInitEv(ptr noundef nonnull align 8 dereferenceable(32) %this1)
  br i1 %call, label %if.end, label %if.then

if.then:                                          ; preds = %land.lhs.true
  store i1 false, ptr %retval, align 1
  br label %return

if.end:                                           ; preds = %land.lhs.true, %entry
  %fd_2 = getelementptr inbounds %"struct.hermes::vm::instrumentation::PerfCounter", ptr %this1, i32 0, i32 0
  %1 = load i32, ptr %fd_2, align 8
  %call3 = call i32 (i32, i64, ...) @ioctl(i32 noundef %1, i64 noundef 9219, i32 noundef 0) #6
  %fd_4 = getelementptr inbounds %"struct.hermes::vm::instrumentation::PerfCounter", ptr %this1, i32 0, i32 0
  %2 = load i32, ptr %fd_4, align 8
  %call5 = call i32 (i32, i64, ...) @ioctl(i32 noundef %2, i64 noundef 9216, i32 noundef 0) #6
  store i1 true, ptr %retval, align 1
  br label %return

return:                                           ; preds = %if.end, %if.then
  %3 = load i1, ptr %retval, align 1
  ret i1 %3
}

; Function Attrs: mustprogress nounwind uwtable
define hidden noundef zeroext i1 @_ZN6hermes2vm15instrumentation10PerfEvents5beginEv() #0 align 2 {
entry:
  %retval = alloca i1, align 1
  %__range2 = alloca ptr, align 8
  %__begin2 = alloca ptr, align 8
  %__end2 = alloca ptr, align 8
  %counter = alloca ptr, align 8
  store ptr @_ZN6hermes2vm15instrumentationL8countersE, ptr %__range2, align 8
  store ptr @_ZN6hermes2vm15instrumentationL8countersE, ptr %__begin2, align 8
  store ptr getelementptr inbounds (%"struct.hermes::vm::instrumentation::PerfCounter", ptr @_ZN6hermes2vm15instrumentationL8countersE, i64 5), ptr %__end2, align 8
  br label %for.cond

for.cond:                                         ; preds = %for.inc, %entry
  %0 = load ptr, ptr %__begin2, align 8
  %1 = load ptr, ptr %__end2, align 8
  %cmp = icmp ne ptr %0, %1
  br i1 %cmp, label %for.body, label %for.end

for.body:                                         ; preds = %for.cond
  %2 = load ptr, ptr %__begin2, align 8
  store ptr %2, ptr %counter, align 8
  %3 = load ptr, ptr %counter, align 8
  %call = call noundef zeroext i1 @_ZN6hermes2vm15instrumentation11PerfCounter5beginEv(ptr noundef nonnull align 8 dereferenceable(32) %3)
  br i1 %call, label %if.end, label %if.then

if.then:                                          ; preds = %for.body
  store i1 false, ptr %retval, align 1
  br label %return

if.end:                                           ; preds = %for.body
  br label %for.inc

for.inc:                                          ; preds = %if.end
  %4 = load ptr, ptr %__begin2, align 8
  %incdec.ptr = getelementptr inbounds %"struct.hermes::vm::instrumentation::PerfCounter", ptr %4, i32 1
  store ptr %incdec.ptr, ptr %__begin2, align 8
  br label %for.cond

for.end:                                          ; preds = %for.cond
  store i1 true, ptr %retval, align 1
  br label %return

return:                                           ; preds = %for.end, %if.then
  %5 = load i1, ptr %retval, align 1
  ret i1 %5
}