; Function Attrs: mustprogress nounwind uwtable
define hidden noundef zeroext i1 @_ZN6hermes2vm15instrumentation10PerfEvents5beginEv() local_unnamed_addr #0 align 2 {
entry:
  %pe.i.i = alloca %struct.perf_event_attr, align 8
  %0 = getelementptr inbounds i8, ptr %pe.i.i, i64 16
  %size.i.i = getelementptr inbounds i8, ptr %pe.i.i, i64 4
  %config.i.i = getelementptr inbounds i8, ptr %pe.i.i, i64 8
  %disabled.i.i = getelementptr inbounds i8, ptr %pe.i.i, i64 40
  br label %for.body

for.body:                                         ; preds = %entry, %for.inc
  %__begin2.0.idx4 = phi i64 [ 0, %entry ], [ %__begin2.0.add, %for.inc ]
  %__begin2.0.ptr = getelementptr inbounds i8, ptr @_ZN6hermes2vm15instrumentationL8countersE, i64 %__begin2.0.idx4
  %1 = load i32, ptr %__begin2.0.ptr, align 16
  %cmp.i = icmp eq i32 %1, -1
  br i1 %cmp.i, label %land.lhs.true.i, label %for.inc

land.lhs.true.i:                                  ; preds = %for.body
  call void @llvm.lifetime.start.p0(i64 128, ptr nonnull %pe.i.i)
  call void @llvm.memset.p0.i64(ptr noundef nonnull align 8 dereferenceable(128) %0, i8 0, i64 112, i1 false)
  %type_.i.i = getelementptr inbounds i8, ptr %__begin2.0.ptr, i64 16
  %2 = load i32, ptr %type_.i.i, align 16
  store i32 %2, ptr %pe.i.i, align 8
  store i32 128, ptr %size.i.i, align 4
  %config_.i.i = getelementptr inbounds i8, ptr %__begin2.0.ptr, i64 24
  %3 = load i64, ptr %config_.i.i, align 8
  store i64 %3, ptr %config.i.i, align 8
  store i64 97, ptr %disabled.i.i, align 8
  %call.i.i = call i64 (i64, ...) @syscall(i64 noundef 298, ptr noundef nonnull %pe.i.i, i32 noundef 0, i32 noundef -1, i32 noundef -1, i32 noundef 0) #8
  %conv.i.i = trunc i64 %call.i.i to i32
  store i32 %conv.i.i, ptr %__begin2.0.ptr, align 16
  %cmp.i.not.i = icmp eq i32 %conv.i.i, -1
  call void @llvm.lifetime.end.p0(i64 128, ptr nonnull %pe.i.i)
  br i1 %cmp.i.not.i, label %return, label %for.inc

for.inc:                                          ; preds = %for.body, %land.lhs.true.i
  %4 = phi i32 [ %conv.i.i, %land.lhs.true.i ], [ %1, %for.body ]
  %call3.i = call i32 (i32, i64, ...) @ioctl(i32 noundef %4, i64 noundef 9219, i32 noundef 0) #8
  %5 = load i32, ptr %__begin2.0.ptr, align 16
  %call5.i = call i32 (i32, i64, ...) @ioctl(i32 noundef %5, i64 noundef 9216, i32 noundef 0) #8
  %__begin2.0.add = add nuw nsw i64 %__begin2.0.idx4, 32
  %cmp.not = icmp eq i64 %__begin2.0.add, 160
  br i1 %cmp.not, label %return, label %for.body

return:                                           ; preds = %land.lhs.true.i, %for.inc
  %cmp.not.lcssa = phi i1 [ false, %land.lhs.true.i ], [ true, %for.inc ]
  ret i1 %cmp.not.lcssa
}